; Function Attrs: mustprogress uwtable
define hidden noundef zeroext i1 @_ZN3sat8parallel11from_solverERNS_14i_local_searchE(ptr noundef nonnull align 8 dereferenceable(176) %this, ptr noundef nonnull align 8 dereferenceable(8) %s) local_unnamed_addr #4 align 2 personality ptr @__gxx_personality_v0 {
entry:
  %m_mux = getelementptr inbounds i8, ptr %this, i64 72
  %call1.i.i.i = tail call noundef i32 @pthread_mutex_lock(ptr noundef nonnull %m_mux) #18
  %tobool.not.i.i = icmp eq i32 %call1.i.i.i, 0
  br i1 %tobool.not.i.i, label %_ZNSt10lock_guardISt5mutexEC2ERS0_.exit, label %if.then.i.i

if.then.i.i:                                      ; preds = %entry
  tail call void @_ZSt20__throw_system_errori(i32 noundef %call1.i.i.i) #20
  unreachable

_ZNSt10lock_guardISt5mutexEC2ERS0_.exit:          ; preds = %entry
  %m_consumer_ready.i = getelementptr inbounds i8, ptr %this, i64 128
  store i8 1, ptr %m_consumer_ready.i, align 8
  %m_solver_copy.i = getelementptr inbounds i8, ptr %this, i64 120
  %0 = load ptr, ptr %m_solver_copy.i, align 8
  %cmp.i.i = icmp ne ptr %0, null
  br i1 %cmp.i.i, label %if.then.i, label %invoke.cont

if.then.i:                                        ; preds = %_ZNSt10lock_guardISt5mutexEC2ERS0_.exit
  %m_best_phase.i = getelementptr inbounds i8, ptr %0, i64 3608
  %vtable.i = load ptr, ptr %s, align 8
  %vfn.i = getelementptr inbounds i8, ptr %vtable.i, i64 48
  %1 = load ptr, ptr %vfn.i, align 8
  invoke void %1(ptr noundef nonnull align 8 dereferenceable(8) %s, ptr noundef nonnull align 8 dereferenceable(4408) %0, ptr noundef nonnull align 8 dereferenceable(8) %m_best_phase.i)
          to label %invoke.cont unwind label %lpad

invoke.cont:                                      ; preds = %_ZNSt10lock_guardISt5mutexEC2ERS0_.exit, %if.then.i
  %call1.i.i.i1 = tail call noundef i32 @pthread_mutex_unlock(ptr noundef nonnull %m_mux) #18
  ret i1 %cmp.i.i

lpad:                                             ; preds = %if.then.i
  %2 = landingpad { ptr, i32 }
          cleanup
  %call1.i.i.i2 = tail call noundef i32 @pthread_mutex_unlock(ptr noundef nonnull %m_mux) #18
  resume { ptr, i32 } %2
}